target datalayout = "e-m:e-p270:32:32-p271:32:32-p272:64:64-i64:64-i128:128-f80:128-n8:16:32:64-S128"
target triple = "x86_64-pc-linux-gnu"

%struct.proto_name_tokenp = type { ptr, ptr }
%struct.curl_version_info_data = type { i32, ptr, i32, ptr, i32, ptr, i64, ptr, ptr, ptr, i32, ptr, i32, ptr, i32, ptr, i32, ptr, ptr, ptr, ptr, i32, ptr, ptr, ptr, ptr, ptr }
%struct.feature_name_presentp = type { ptr, ptr, i32 }

@curlinfo = dso_local global ptr null, align 8
@built_in_protos = dso_local global ptr @no_protos, align 8
@proto_count = dso_local global i64 0, align 8
@feature_libssh2 = dso_local global i8 0, align 1
@fnames = internal global [32 x ptr] zeroinitializer, align 16
@feature_names = dso_local global ptr @fnames, align 8
@feature_count = dso_local global i64 0, align 8
@.str.2 = private unnamed_addr constant [8 x i8] c"libssh2\00", align 1

; Function Attrs: nounwind uwtable
define dso_local i32 @get_libcurl_info() #0 {
  %1 = alloca i32, align 4
  %2 = alloca i32, align 4
  %3 = alloca ptr, align 8
  %4 = alloca i32, align 4
  %5 = alloca ptr, align 8
  %6 = alloca ptr, align 8
  %7 = alloca ptr, align 8
  %8 = alloca ptr, align 8
  call void @llvm.lifetime.start.p0(i64 4, ptr %2) #4
  store i32 0, ptr %2, align 4, !tbaa !4
  call void @llvm.lifetime.start.p0(i64 8, ptr %3) #4
  %9 = call ptr @curl_version_info(i32 noundef 11)
  store ptr %9, ptr @curlinfo, align 8, !tbaa !8
  %10 = load ptr, ptr @curlinfo, align 8, !tbaa !8
  %11 = icmp ne ptr %10, null
  br i1 %11, label %13, label %12

12:                                               ; preds = %0
  store i32 2, ptr %1, align 4
  store i32 1, ptr %4, align 4
  br label %163

13:                                               ; preds = %0
  %14 = load ptr, ptr @curlinfo, align 8, !tbaa !8
  %15 = getelementptr inbounds nuw %struct.curl_version_info_data, ptr %14, i32 0, i32 8
  %16 = load ptr, ptr %15, align 8, !tbaa !11
  %17 = icmp ne ptr %16, null
  br i1 %17, label %18, label %67

18:                                               ; preds = %13
  call void @llvm.lifetime.start.p0(i64 8, ptr %5) #4
  %19 = load ptr, ptr @curlinfo, align 8, !tbaa !8
  %20 = getelementptr inbounds nuw %struct.curl_version_info_data, ptr %19, i32 0, i32 8
  %21 = load ptr, ptr %20, align 8, !tbaa !11
  store ptr %21, ptr @built_in_protos, align 8, !tbaa !16
  %22 = load ptr, ptr @built_in_protos, align 8, !tbaa !16
  store ptr %22, ptr %3, align 8, !tbaa !16
  br label %23

23:                                               ; preds = %57, %18
  %24 = load i32, ptr %2, align 4, !tbaa !4
  %25 = icmp ne i32 %24, 0
  br i1 %25, label %30, label %26

26:                                               ; preds = %23
  %27 = load ptr, ptr %3, align 8, !tbaa !16
  %28 = load ptr, ptr %27, align 8, !tbaa !17
  %29 = icmp ne ptr %28, null
  br label %30

30:                                               ; preds = %26, %23
  %31 = phi i1 [ false, %23 ], [ %29, %26 ]
  br i1 %31, label %32, label %60

32:                                               ; preds = %30
  store ptr @possibly_built_in, ptr %5, align 8, !tbaa !18
  br label %33

33:                                               ; preds = %53, %32
  %34 = load ptr, ptr %5, align 8, !tbaa !18
  %35 = getelementptr inbounds nuw %struct.proto_name_tokenp, ptr %34, i32 0, i32 0
  %36 = load ptr, ptr %35, align 8, !tbaa !20
  %37 = icmp ne ptr %36, null
  br i1 %37, label %38, label %56

38:                                               ; preds = %33
  %39 = load ptr, ptr %5, align 8, !tbaa !18
  %40 = getelementptr inbounds nuw %struct.proto_name_tokenp, ptr %39, i32 0, i32 0
  %41 = load ptr, ptr %40, align 8, !tbaa !20
  %42 = load ptr, ptr %3, align 8, !tbaa !16
  %43 = load ptr, ptr %42, align 8, !tbaa !17
  %44 = call i32 @curl_strequal(ptr noundef %41, ptr noundef %43)
  %45 = icmp ne i32 %44, 0
  br i1 %45, label %46, label %52

46:                                               ; preds = %38
  %47 = load ptr, ptr %3, align 8, !tbaa !16
  %48 = load ptr, ptr %47, align 8, !tbaa !17
  %49 = load ptr, ptr %5, align 8, !tbaa !18
  %50 = getelementptr inbounds nuw %struct.proto_name_tokenp, ptr %49, i32 0, i32 1
  %51 = load ptr, ptr %50, align 8, !tbaa !22
  store ptr %48, ptr %51, align 8, !tbaa !17
  br label %56

52:                                               ; preds = %38
  br label %53

53:                                               ; preds = %52
  %54 = load ptr, ptr %5, align 8, !tbaa !18
  %55 = getelementptr inbounds nuw %struct.proto_name_tokenp, ptr %54, i32 1
  store ptr %55, ptr %5, align 8, !tbaa !18
  br label %33, !llvm.loop !23

56:                                               ; preds = %46, %33
  br label %57

57:                                               ; preds = %56
  %58 = load ptr, ptr %3, align 8, !tbaa !16
  %59 = getelementptr inbounds nuw ptr, ptr %58, i32 1
  store ptr %59, ptr %3, align 8, !tbaa !16
  br label %23, !llvm.loop !25

60:                                               ; preds = %30
  %61 = load ptr, ptr %3, align 8, !tbaa !16
  %62 = load ptr, ptr @built_in_protos, align 8, !tbaa !16
  %63 = ptrtoint ptr %61 to i64
  %64 = ptrtoint ptr %62 to i64
  %65 = sub i64 %63, %64
  %66 = sdiv exact i64 %65, 8
  store i64 %66, ptr @proto_count, align 8, !tbaa !26
  call void @llvm.lifetime.end.p0(i64 8, ptr %5) #4
  br label %67

67:                                               ; preds = %60, %13
  %68 = load ptr, ptr @curlinfo, align 8, !tbaa !8
  %69 = getelementptr inbounds nuw %struct.curl_version_info_data, ptr %68, i32 0, i32 0
  %70 = load i32, ptr %69, align 8, !tbaa !27
  %71 = icmp uge i32 %70, 10
  br i1 %71, label %72, label %81

72:                                               ; preds = %67
  %73 = load ptr, ptr @curlinfo, align 8, !tbaa !8
  %74 = getelementptr inbounds nuw %struct.curl_version_info_data, ptr %73, i32 0, i32 25
  %75 = load ptr, ptr %74, align 8, !tbaa !28
  %76 = icmp ne ptr %75, null
  br i1 %76, label %77, label %81

77:                                               ; preds = %72
  %78 = load ptr, ptr @curlinfo, align 8, !tbaa !8
  %79 = getelementptr inbounds nuw %struct.curl_version_info_data, ptr %78, i32 0, i32 25
  %80 = load ptr, ptr %79, align 8, !tbaa !28
  store ptr %80, ptr @feature_names, align 8, !tbaa !16
  br label %108

81:                                               ; preds = %72, %67
  call void @llvm.lifetime.start.p0(i64 8, ptr %6) #4
  call void @llvm.lifetime.start.p0(i64 8, ptr %7) #4
  store ptr @fnames, ptr %7, align 8, !tbaa !16
  store ptr @maybe_feature, ptr %6, align 8, !tbaa !29
  br label %82

82:                                               ; preds = %103, %81
  %83 = load ptr, ptr %6, align 8, !tbaa !29
  %84 = getelementptr inbounds nuw %struct.feature_name_presentp, ptr %83, i32 0, i32 0
  %85 = load ptr, ptr %84, align 8, !tbaa !31
  %86 = icmp ne ptr %85, null
  br i1 %86, label %87, label %106

87:                                               ; preds = %82
  %88 = load ptr, ptr @curlinfo, align 8, !tbaa !8
  %89 = getelementptr inbounds nuw %struct.curl_version_info_data, ptr %88, i32 0, i32 4
  %90 = load i32, ptr %89, align 8, !tbaa !34
  %91 = load ptr, ptr %6, align 8, !tbaa !29
  %92 = getelementptr inbounds nuw %struct.feature_name_presentp, ptr %91, i32 0, i32 2
  %93 = load i32, ptr %92, align 8, !tbaa !35
  %94 = and i32 %90, %93
  %95 = icmp ne i32 %94, 0
  br i1 %95, label %96, label %102

96:                                               ; preds = %87
  %97 = load ptr, ptr %6, align 8, !tbaa !29
  %98 = getelementptr inbounds nuw %struct.feature_name_presentp, ptr %97, i32 0, i32 0
  %99 = load ptr, ptr %98, align 8, !tbaa !31
  %100 = load ptr, ptr %7, align 8, !tbaa !16
  %101 = getelementptr inbounds nuw ptr, ptr %100, i32 1
  store ptr %101, ptr %7, align 8, !tbaa !16
  store ptr %99, ptr %100, align 8, !tbaa !17
  br label %102

102:                                              ; preds = %96, %87
  br label %103

103:                                              ; preds = %102
  %104 = load ptr, ptr %6, align 8, !tbaa !29
  %105 = getelementptr inbounds nuw %struct.feature_name_presentp, ptr %104, i32 1
  store ptr %105, ptr %6, align 8, !tbaa !29
  br label %82, !llvm.loop !36

106:                                              ; preds = %82
  %107 = load ptr, ptr %7, align 8, !tbaa !16
  store ptr null, ptr %107, align 8, !tbaa !17
  call void @llvm.lifetime.end.p0(i64 8, ptr %7) #4
  call void @llvm.lifetime.end.p0(i64 8, ptr %6) #4
  br label %108

108:                                              ; preds = %106, %77
  %109 = load ptr, ptr @feature_names, align 8, !tbaa !16
  store ptr %109, ptr %3, align 8, !tbaa !16
  br label %110

110:                                              ; preds = %145, %108
  %111 = load ptr, ptr %3, align 8, !tbaa !16
  %112 = load ptr, ptr %111, align 8, !tbaa !17
  %113 = icmp ne ptr %112, null
  br i1 %113, label %114, label %148

114:                                              ; preds = %110
  call void @llvm.lifetime.start.p0(i64 8, ptr %8) #4
  store ptr @maybe_feature, ptr %8, align 8, !tbaa !29
  br label %115

115:                                              ; preds = %139, %114
  %116 = load ptr, ptr %8, align 8, !tbaa !29
  %117 = getelementptr inbounds nuw %struct.feature_name_presentp, ptr %116, i32 0, i32 0
  %118 = load ptr, ptr %117, align 8, !tbaa !31
  %119 = icmp ne ptr %118, null
  br i1 %119, label %120, label %142

120:                                              ; preds = %115
  %121 = load ptr, ptr %8, align 8, !tbaa !29
  %122 = getelementptr inbounds nuw %struct.feature_name_presentp, ptr %121, i32 0, i32 0
  %123 = load ptr, ptr %122, align 8, !tbaa !31
  %124 = load ptr, ptr %3, align 8, !tbaa !16
  %125 = load ptr, ptr %124, align 8, !tbaa !17
  %126 = call i32 @curl_strequal(ptr noundef %123, ptr noundef %125)
  %127 = icmp ne i32 %126, 0
  br i1 %127, label %128, label %138

128:                                              ; preds = %120
  %129 = load ptr, ptr %8, align 8, !tbaa !29
  %130 = getelementptr inbounds nuw %struct.feature_name_presentp, ptr %129, i32 0, i32 1
  %131 = load ptr, ptr %130, align 8, !tbaa !37
  %132 = icmp ne ptr %131, null
  br i1 %132, label %133, label %137

133:                                              ; preds = %128
  %134 = load ptr, ptr %8, align 8, !tbaa !29
  %135 = getelementptr inbounds nuw %struct.feature_name_presentp, ptr %134, i32 0, i32 1
  %136 = load ptr, ptr %135, align 8, !tbaa !37
  store i8 1, ptr %136, align 1, !tbaa !38
  br label %137

137:                                              ; preds = %133, %128
  br label %142

138:                                              ; preds = %120
  br label %139

139:                                              ; preds = %138
  %140 = load ptr, ptr %8, align 8, !tbaa !29
  %141 = getelementptr inbounds nuw %struct.feature_name_presentp, ptr %140, i32 1
  store ptr %141, ptr %8, align 8, !tbaa !29
  br label %115, !llvm.loop !40

142:                                              ; preds = %137, %115
  %143 = load i64, ptr @feature_count, align 8, !tbaa !26
  %144 = add i64 %143, 1
  store i64 %144, ptr @feature_count, align 8, !tbaa !26
  call void @llvm.lifetime.end.p0(i64 8, ptr %8) #4
  br label %145

145:                                              ; preds = %142
  %146 = load ptr, ptr %3, align 8, !tbaa !16
  %147 = getelementptr inbounds nuw ptr, ptr %146, i32 1
  store ptr %147, ptr %3, align 8, !tbaa !16
  br label %110, !llvm.loop !41

148:                                              ; preds = %110
  %149 = load ptr, ptr @curlinfo, align 8, !tbaa !8
  %150 = getelementptr inbounds nuw %struct.curl_version_info_data, ptr %149, i32 0, i32 13
  %151 = load ptr, ptr %150, align 8, !tbaa !42
  %152 = icmp ne ptr %151, null
  br i1 %152, label %153, label %160

153:                                              ; preds = %148
  %154 = load ptr, ptr @curlinfo, align 8, !tbaa !8
  %155 = getelementptr inbounds nuw %struct.curl_version_info_data, ptr %154, i32 0, i32 13
  %156 = load ptr, ptr %155, align 8, !tbaa !42
  %157 = call i32 @strncmp(ptr noundef @.str.2, ptr noundef %156, i64 noundef 7) #5
  %158 = icmp ne i32 %157, 0
  %159 = xor i1 %158, true
  br label %160

160:                                              ; preds = %153, %148
  %161 = phi i1 [ false, %148 ], [ %159, %153 ]
  %162 = zext i1 %161 to i8
  store i8 %162, ptr @feature_libssh2, align 1, !tbaa !38
  store i32 0, ptr %1, align 4
  store i32 1, ptr %4, align 4
  br label %163

163:                                              ; preds = %160, %12
  call void @llvm.lifetime.end.p0(i64 8, ptr %3) #4
  call void @llvm.lifetime.end.p0(i64 4, ptr %2) #4
  %164 = load i32, ptr %1, align 4
  ret i32 %164
}