; Function Attrs: nounwind uwtable
define dso_local range(i32 0, 3) i32 @get_libcurl_info() local_unnamed_addr #0 {
  %1 = tail call ptr @curl_version_info(i32 noundef 11) #3
  store ptr %1, ptr @curlinfo, align 8, !tbaa !4
  %.not = icmp eq ptr %1, null
  br i1 %.not, label %73, label %2

2:                                                ; preds = %0
  %3 = getelementptr inbounds nuw i8, ptr %1, i64 64
  %4 = load ptr, ptr %3, align 8, !tbaa !9
  %.not38 = icmp eq ptr %4, null
  br i1 %.not38, label %25, label %5

5:                                                ; preds = %2
  store ptr %4, ptr @built_in_protos, align 8, !tbaa !15
  %6 = load ptr, ptr %4, align 8, !tbaa !16
  %.not3956 = icmp eq ptr %6, null
  br i1 %.not3956, label %.critedge, label %.preheader51

.preheader51:                                     ; preds = %5, %.loopexit52
  %.02757 = phi ptr [ %18, %.loopexit52 ], [ %4, %5 ]
  br label %7

7:                                                ; preds = %.preheader51, %15
  %8 = phi ptr [ @.str.3, %.preheader51 ], [ %17, %15 ]
  %.02655 = phi ptr [ @possibly_built_in, %.preheader51 ], [ %16, %15 ]
  %9 = load ptr, ptr %.02757, align 8, !tbaa !16
  %10 = tail call i32 @curl_strequal(ptr noundef nonnull %8, ptr noundef %9) #3
  %.not50 = icmp eq i32 %10, 0
  br i1 %.not50, label %15, label %11

11:                                               ; preds = %7
  %12 = load ptr, ptr %.02757, align 8, !tbaa !16
  %13 = getelementptr inbounds nuw i8, ptr %.02655, i64 8
  %14 = load ptr, ptr %13, align 8, !tbaa !17
  store ptr %12, ptr %14, align 8, !tbaa !16
  br label %.loopexit52

15:                                               ; preds = %7
  %16 = getelementptr inbounds nuw i8, ptr %.02655, i64 16
  %17 = load ptr, ptr %16, align 8, !tbaa !19
  %.not49 = icmp eq ptr %17, null
  br i1 %.not49, label %.loopexit52, label %7, !llvm.loop !20

.loopexit52:                                      ; preds = %15, %11
  %18 = getelementptr inbounds nuw i8, ptr %.02757, i64 8
  %19 = load ptr, ptr %18, align 8, !tbaa !16
  %.not39 = icmp eq ptr %19, null
  br i1 %.not39, label %.critedge.loopexit, label %.preheader51, !llvm.loop !22

.critedge.loopexit:                               ; preds = %.loopexit52
  %.pre = load ptr, ptr @built_in_protos, align 8, !tbaa !15
  %.pre65.pre = load ptr, ptr @curlinfo, align 8, !tbaa !4
  br label %.critedge

.critedge:                                        ; preds = %.critedge.loopexit, %5
  %.pre65 = phi ptr [ %1, %5 ], [ %.pre65.pre, %.critedge.loopexit ]
  %20 = phi ptr [ %4, %5 ], [ %.pre, %.critedge.loopexit ]
  %.027.lcssa = phi ptr [ %4, %5 ], [ %18, %.critedge.loopexit ]
  %21 = ptrtoint ptr %.027.lcssa to i64
  %22 = ptrtoint ptr %20 to i64
  %23 = sub i64 %21, %22
  %24 = ashr exact i64 %23, 3
  store i64 %24, ptr @proto_count, align 8, !tbaa !23
  br label %25

25:                                               ; preds = %.critedge, %2
  %26 = phi ptr [ %.pre65, %.critedge ], [ %1, %2 ]
  %27 = load i32, ptr %26, align 8, !tbaa !24
  %28 = icmp ugt i32 %27, 9
  br i1 %28, label %29, label %33

29:                                               ; preds = %25
  %30 = getelementptr inbounds nuw i8, ptr %26, i64 200
  %31 = load ptr, ptr %30, align 8, !tbaa !25
  %.not40 = icmp eq ptr %31, null
  br i1 %.not40, label %33, label %32

32:                                               ; preds = %29
  store ptr %31, ptr @feature_names, align 8, !tbaa !15
  br label %47

33:                                               ; preds = %29, %25
  %34 = getelementptr inbounds nuw i8, ptr %26, i64 32
  %35 = load i32, ptr %34, align 8, !tbaa !26
  br label %36

36:                                               ; preds = %33, %43
  %37 = phi ptr [ @.str.12, %33 ], [ %45, %43 ]
  %.02459 = phi ptr [ @fnames, %33 ], [ %.1, %43 ]
  %.02558 = phi ptr [ @maybe_feature, %33 ], [ %44, %43 ]
  %38 = getelementptr inbounds nuw i8, ptr %.02558, i64 16
  %39 = load i32, ptr %38, align 8, !tbaa !27
  %40 = and i32 %39, %35
  %.not42 = icmp eq i32 %40, 0
  br i1 %.not42, label %43, label %41

41:                                               ; preds = %36
  %42 = getelementptr inbounds nuw i8, ptr %.02459, i64 8
  store ptr %37, ptr %.02459, align 8, !tbaa !16
  br label %43

43:                                               ; preds = %36, %41
  %.1 = phi ptr [ %42, %41 ], [ %.02459, %36 ]
  %44 = getelementptr inbounds nuw i8, ptr %.02558, i64 24
  %45 = load ptr, ptr %44, align 8, !tbaa !30
  %.not41 = icmp eq ptr %45, null
  br i1 %.not41, label %46, label %36, !llvm.loop !31

46:                                               ; preds = %43
  store ptr null, ptr %.1, align 8, !tbaa !16
  %.pre66 = load ptr, ptr @feature_names, align 8, !tbaa !15
  br label %47

47:                                               ; preds = %46, %32
  %48 = phi ptr [ %.pre66, %46 ], [ %31, %32 ]
  %49 = load ptr, ptr %48, align 8, !tbaa !16
  %.not4361 = icmp eq ptr %49, null
  br i1 %.not4361, label %._crit_edge, label %.preheader

.preheader:                                       ; preds = %47, %.loopexit
  %.12862 = phi ptr [ %63, %.loopexit ], [ %48, %47 ]
  br label %50

50:                                               ; preds = %.preheader, %58
  %51 = phi ptr [ @.str.12, %.preheader ], [ %60, %58 ]
  %.060 = phi ptr [ @maybe_feature, %.preheader ], [ %59, %58 ]
  %52 = load ptr, ptr %.12862, align 8, !tbaa !16
  %53 = tail call i32 @curl_strequal(ptr noundef nonnull %51, ptr noundef %52) #3
  %.not47 = icmp eq i32 %53, 0
  br i1 %.not47, label %58, label %54

54:                                               ; preds = %50
  %55 = getelementptr inbounds nuw i8, ptr %.060, i64 8
  %56 = load ptr, ptr %55, align 8, !tbaa !32
  %.not48 = icmp eq ptr %56, null
  br i1 %.not48, label %.loopexit, label %57

57:                                               ; preds = %54
  store i8 1, ptr %56, align 1, !tbaa !33
  br label %.loopexit

58:                                               ; preds = %50
  %59 = getelementptr inbounds nuw i8, ptr %.060, i64 24
  %60 = load ptr, ptr %59, align 8, !tbaa !30
  %.not46 = icmp eq ptr %60, null
  br i1 %.not46, label %.loopexit, label %50, !llvm.loop !35

.loopexit:                                        ; preds = %58, %54, %57
  %61 = load i64, ptr @feature_count, align 8, !tbaa !23
  %62 = add i64 %61, 1
  store i64 %62, ptr @feature_count, align 8, !tbaa !23
  %63 = getelementptr inbounds nuw i8, ptr %.12862, i64 8
  %64 = load ptr, ptr %63, align 8, !tbaa !16
  %.not43 = icmp eq ptr %64, null
  br i1 %.not43, label %._crit_edge.loopexit, label %.preheader, !llvm.loop !36

._crit_edge.loopexit:                             ; preds = %.loopexit
  %.pre67 = load ptr, ptr @curlinfo, align 8, !tbaa !4
  br label %._crit_edge

._crit_edge:                                      ; preds = %._crit_edge.loopexit, %47
  %65 = phi ptr [ %.pre67, %._crit_edge.loopexit ], [ %26, %47 ]
  %66 = getelementptr inbounds nuw i8, ptr %65, i64 104
  %67 = load ptr, ptr %66, align 8, !tbaa !37
  %.not44 = icmp eq ptr %67, null
  br i1 %.not44, label %71, label %68

68:                                               ; preds = %._crit_edge
  %69 = tail call i32 @strncmp(ptr noundef nonnull dereferenceable(8) @.str.2, ptr noundef nonnull dereferenceable(1) %67, i64 noundef 7) #4
  %.not45 = icmp eq i32 %69, 0
  %70 = zext i1 %.not45 to i8
  br label %71

71:                                               ; preds = %68, %._crit_edge
  %72 = phi i8 [ 0, %._crit_edge ], [ %70, %68 ]
  store i8 %72, ptr @feature_libssh2, align 1, !tbaa !33
  br label %73

73:                                               ; preds = %0, %71
  %.029 = phi i32 [ 0, %71 ], [ 2, %0 ]
  ret i32 %.029
}